target datalayout = "e-m:e-p270:32:32-p271:32:32-p272:64:64-i64:64-i128:128-f80:128-n8:16:32:64-S128"
target triple = "x86_64-pc-linux-gnu"

; Function Attrs: nounwind uwtable
define void @transpose32a(ptr noundef %0) #0 {
  %2 = alloca ptr, align 8
  %3 = alloca i32, align 4
  %4 = alloca i32, align 4
  %5 = alloca i64, align 8
  %6 = alloca i64, align 8
  store ptr %0, ptr %2, align 8, !tbaa !42
  call void @llvm.lifetime.start.p0(i64 4, ptr %3) #11
  call void @llvm.lifetime.start.p0(i64 4, ptr %4) #11
  call void @llvm.lifetime.start.p0(i64 8, ptr %5) #11
  call void @llvm.lifetime.start.p0(i64 8, ptr %6) #11
  store i32 16, ptr %3, align 4, !tbaa !21
  store i64 65535, ptr %5, align 8, !tbaa !45
  br label %7

7:                                                ; preds = %65, %1
  %8 = load i32, ptr %3, align 4, !tbaa !21
  %9 = icmp ne i32 %8, 0
  br i1 %9, label %10, label %74

10:                                               ; preds = %7
  store i32 0, ptr %4, align 4, !tbaa !21
  br label %11

11:                                               ; preds = %56, %10
  %12 = load i32, ptr %4, align 4, !tbaa !21
  %13 = icmp slt i32 %12, 32
  br i1 %13, label %14, label %64

14:                                               ; preds = %11
  %15 = load ptr, ptr %2, align 8, !tbaa !42
  %16 = load i32, ptr %4, align 4, !tbaa !21
  %17 = sext i32 %16 to i64
  %18 = getelementptr inbounds i32, ptr %15, i64 %17
  %19 = load i32, ptr %18, align 4, !tbaa !21
  %20 = load ptr, ptr %2, align 8, !tbaa !42
  %21 = load i32, ptr %4, align 4, !tbaa !21
  %22 = load i32, ptr %3, align 4, !tbaa !21
  %23 = or i32 %21, %22
  %24 = sext i32 %23 to i64
  %25 = getelementptr inbounds i32, ptr %20, i64 %24
  %26 = load i32, ptr %25, align 4, !tbaa !21
  %27 = load i32, ptr %3, align 4, !tbaa !21
  %28 = lshr i32 %26, %27
  %29 = xor i32 %19, %28
  %30 = zext i32 %29 to i64
  %31 = load i64, ptr %5, align 8, !tbaa !45
  %32 = and i64 %30, %31
  store i64 %32, ptr %6, align 8, !tbaa !45
  %33 = load i64, ptr %6, align 8, !tbaa !45
  %34 = load ptr, ptr %2, align 8, !tbaa !42
  %35 = load i32, ptr %4, align 4, !tbaa !21
  %36 = sext i32 %35 to i64
  %37 = getelementptr inbounds i32, ptr %34, i64 %36
  %38 = load i32, ptr %37, align 4, !tbaa !21
  %39 = zext i32 %38 to i64
  %40 = xor i64 %39, %33
  %41 = trunc i64 %40 to i32
  store i32 %41, ptr %37, align 4, !tbaa !21
  %42 = load i64, ptr %6, align 8, !tbaa !45
  %43 = load i32, ptr %3, align 4, !tbaa !21
  %44 = zext i32 %43 to i64
  %45 = shl i64 %42, %44
  %46 = load ptr, ptr %2, align 8, !tbaa !42
  %47 = load i32, ptr %4, align 4, !tbaa !21
  %48 = load i32, ptr %3, align 4, !tbaa !21
  %49 = or i32 %47, %48
  %50 = sext i32 %49 to i64
  %51 = getelementptr inbounds i32, ptr %46, i64 %50
  %52 = load i32, ptr %51, align 4, !tbaa !21
  %53 = zext i32 %52 to i64
  %54 = xor i64 %53, %45
  %55 = trunc i64 %54 to i32
  store i32 %55, ptr %51, align 4, !tbaa !21
  br label %56

56:                                               ; preds = %14
  %57 = load i32, ptr %4, align 4, !tbaa !21
  %58 = load i32, ptr %3, align 4, !tbaa !21
  %59 = or i32 %57, %58
  %60 = add nsw i32 %59, 1
  %61 = load i32, ptr %3, align 4, !tbaa !21
  %62 = xor i32 %61, -1
  %63 = and i32 %60, %62
  store i32 %63, ptr %4, align 4, !tbaa !21
  br label %11, !llvm.loop !46

64:                                               ; preds = %11
  br label %65

65:                                               ; preds = %64
  %66 = load i32, ptr %3, align 4, !tbaa !21
  %67 = ashr i32 %66, 1
  store i32 %67, ptr %3, align 4, !tbaa !21
  %68 = load i64, ptr %5, align 8, !tbaa !45
  %69 = load i32, ptr %3, align 4, !tbaa !21
  %70 = zext i32 %69 to i64
  %71 = shl i64 %68, %70
  %72 = load i64, ptr %5, align 8, !tbaa !45
  %73 = xor i64 %72, %71
  store i64 %73, ptr %5, align 8, !tbaa !45
  br label %7, !llvm.loop !47

74:                                               ; preds = %7
  call void @llvm.lifetime.end.p0(i64 8, ptr %6) #11
  call void @llvm.lifetime.end.p0(i64 8, ptr %5) #11
  call void @llvm.lifetime.end.p0(i64 4, ptr %4) #11
  call void @llvm.lifetime.end.p0(i64 4, ptr %3) #11
  ret void
}