; Function Attrs: nofree norecurse nosync nounwind memory(argmem: readwrite) uwtable
define void @transpose32a(ptr noundef captures(none) %0) local_unnamed_addr #5 {
  br label %.preheader

.preheader:                                       ; preds = %1, %25
  %.027 = phi i32 [ 16, %1 ], [ %26, %25 ]
  %.02326 = phi i64 [ 65535, %1 ], [ %29, %25 ]
  %2 = zext nneg i32 %.027 to i64
  %3 = xor i32 %.027, -1
  br label %4

4:                                                ; preds = %.preheader, %4
  %.02425 = phi i32 [ 0, %.preheader ], [ %23, %4 ]
  %5 = sext i32 %.02425 to i64
  %6 = getelementptr inbounds i32, ptr %0, i64 %5
  %7 = load i32, ptr %6, align 4, !tbaa !38
  %8 = or i32 %.02425, %.027
  %9 = sext i32 %8 to i64
  %10 = getelementptr inbounds i32, ptr %0, i64 %9
  %11 = load i32, ptr %10, align 4, !tbaa !38
  %12 = lshr i32 %11, %.027
  %13 = xor i32 %12, %7
  %14 = zext i32 %13 to i64
  %15 = and i64 %.02326, %14
  %16 = trunc nuw i64 %15 to i32
  %17 = xor i32 %7, %16
  store i32 %17, ptr %6, align 4, !tbaa !38
  %18 = shl nuw nsw i64 %15, %2
  %19 = load i32, ptr %10, align 4, !tbaa !38
  %20 = trunc i64 %18 to i32
  %21 = xor i32 %19, %20
  store i32 %21, ptr %10, align 4, !tbaa !38
  %22 = add nsw i32 %8, 1
  %23 = and i32 %22, %3
  %24 = icmp slt i32 %23, 32
  br i1 %24, label %4, label %25, !llvm.loop !43

25:                                               ; preds = %4
  %26 = lshr i32 %.027, 1
  %27 = zext nneg i32 %26 to i64
  %28 = shl i64 %.02326, %27
  %29 = xor i64 %28, %.02326
  %.not = icmp samesign ult i32 %.027, 2
  br i1 %.not, label %30, label %.preheader, !llvm.loop !44

30:                                               ; preds = %25
  ret void
}